; Function Attrs: mustprogress uwtable
define hidden void @_ZN5nlsat6solver18collect_statisticsER10statistics(ptr nocapture noundef nonnull readonly align 8 dereferenceable(16) %this, ptr noundef nonnull align 8 dereferenceable(16) %st) local_unnamed_addr #4 align 2 {
entry:
  %0 = load ptr, ptr %this, align 8
  %m_conflicts.i = getelementptr inbounds i8, ptr %0, i64 584
  %1 = load i32, ptr %m_conflicts.i, align 8
  tail call void @_ZN10statistics6updateEPKcj(ptr noundef nonnull align 8 dereferenceable(16) %st, ptr noundef nonnull @.str.104, i32 noundef %1)
  %m_propagations.i = getelementptr inbounds i8, ptr %0, i64 588
  %2 = load i32, ptr %m_propagations.i, align 4
  tail call void @_ZN10statistics6updateEPKcj(ptr noundef nonnull align 8 dereferenceable(16) %st, ptr noundef nonnull @.str.105, i32 noundef %2)
  %m_decisions.i = getelementptr inbounds i8, ptr %0, i64 592
  %3 = load i32, ptr %m_decisions.i, align 8
  tail call void @_ZN10statistics6updateEPKcj(ptr noundef nonnull align 8 dereferenceable(16) %st, ptr noundef nonnull @.str.106, i32 noundef %3)
  %m_stages.i = getelementptr inbounds i8, ptr %0, i64 596
  %4 = load i32, ptr %m_stages.i, align 4
  tail call void @_ZN10statistics6updateEPKcj(ptr noundef nonnull align 8 dereferenceable(16) %st, ptr noundef nonnull @.str.107, i32 noundef %4)
  %m_irrational_assignments.i = getelementptr inbounds i8, ptr %0, i64 600
  %5 = load i32, ptr %m_irrational_assignments.i, align 8
  tail call void @_ZN10statistics6updateEPKcj(ptr noundef nonnull align 8 dereferenceable(16) %st, ptr noundef nonnull @.str.108, i32 noundef %5)
  ret void
}